; Function Attrs: mustprogress nounwind ssp uwtable
define void @_ZN6open3d1t8geometry15RaycastingSceneD2Ev(ptr noundef nonnull align 8 captures(none) dereferenceable(8) %0) unnamed_addr #12 align 2 personality ptr @__gxx_personality_v0 {
  %2 = load ptr, ptr %0, align 8, !tbaa !103
  %3 = getelementptr inbounds nuw i8, ptr %2, i64 8
  %4 = load ptr, ptr %3, align 8, !tbaa !120
  invoke void @rtcReleaseScene(ptr noundef %4)
          to label %5 unwind label %14

5:                                                ; preds = %1
  %6 = load ptr, ptr %0, align 8, !tbaa !103
  %7 = getelementptr inbounds nuw i8, ptr %6, i64 24
  %8 = load ptr, ptr %7, align 8, !tbaa !119
  invoke void @rtcReleaseDevice(ptr noundef %8)
          to label %9 unwind label %14

9:                                                ; preds = %5
  %10 = load ptr, ptr %0, align 8, !tbaa !103
  %.not.i = icmp eq ptr %10, null
  br i1 %.not.i, label %_ZNSt10unique_ptrIN6open3d1t8geometry15RaycastingScene4ImplESt14default_deleteIS4_EED2Ev.exit, label %_ZNKSt14default_deleteIN6open3d1t8geometry15RaycastingScene4ImplEEclEPS4_.exit.i

_ZNKSt14default_deleteIN6open3d1t8geometry15RaycastingScene4ImplEEclEPS4_.exit.i: ; preds = %9
  %11 = load ptr, ptr %10, align 8, !tbaa !88
  %12 = getelementptr inbounds nuw i8, ptr %11, i64 8
  %13 = load ptr, ptr %12, align 8
  tail call void %13(ptr noundef nonnull align 8 dereferenceable(65) %10) #16
  br label %_ZNSt10unique_ptrIN6open3d1t8geometry15RaycastingScene4ImplESt14default_deleteIS4_EED2Ev.exit

_ZNSt10unique_ptrIN6open3d1t8geometry15RaycastingScene4ImplESt14default_deleteIS4_EED2Ev.exit: ; preds = %9, %_ZNKSt14default_deleteIN6open3d1t8geometry15RaycastingScene4ImplEEclEPS4_.exit.i
  store ptr null, ptr %0, align 8, !tbaa !103
  ret void

14:                                               ; preds = %5, %1
  %15 = landingpad { ptr, i32 }
          catch ptr null
  %16 = extractvalue { ptr, i32 } %15, 0
  tail call void @__clang_call_terminate(ptr %16) #46
  unreachable
}